; Function Attrs: mustprogress norecurse uwtable
define internal void @_ZL5print12PJ_LOG_LEVELPKcz(i32 noundef range(i32 0, 4) %0, ptr noundef readonly captures(none) %1, ...) unnamed_addr #13 {
  %3 = alloca [1 x %struct.__va_list_tag], align 16
  call void @llvm.lifetime.start.p0(i64 24, ptr nonnull %3) #30
  call void @llvm.va_start.p0(ptr nonnull %3)
  %4 = call noalias dereferenceable_or_null(100000) ptr @malloc(i64 noundef 100000) #39
  %5 = icmp eq ptr %4, null
  br i1 %5, label %6, label %7

6:                                                ; preds = %2
  call void @llvm.va_end.p0(ptr nonnull %3)
  br label %18

7:                                                ; preds = %2
  %8 = call i32 @vsnprintf(ptr noundef nonnull %4, i64 noundef 100000, ptr noundef %1, ptr noundef nonnull %3) #30
  %9 = load ptr, ptr @fout, align 8, !tbaa !21
  %10 = call i32 @proj_log_level(ptr noundef null, i32 noundef 4)
  %11 = icmp eq i32 %0, 0
  br i1 %11, label %.sink.split.i, label %12

12:                                               ; preds = %7
  %13 = icmp sle i32 %0, %10
  %14 = icmp eq i32 %0, 1
  %or.cond.i = or i1 %14, %13
  br i1 %or.cond.i, label %15, label %_ZL6loggerPviPKc.exit

15:                                               ; preds = %12
  %16 = load ptr, ptr @stderr, align 8, !tbaa !21
  br label %.sink.split.i

.sink.split.i:                                    ; preds = %15, %7
  %.sink.i = phi ptr [ %16, %15 ], [ %9, %7 ]
  %17 = call i32 (ptr, ptr, ...) @fprintf(ptr noundef %.sink.i, ptr noundef nonnull @.str.60, ptr noundef nonnull %4) #30
  br label %_ZL6loggerPviPKc.exit

_ZL6loggerPviPKc.exit:                            ; preds = %12, %.sink.split.i
  call void @llvm.va_end.p0(ptr nonnull %3)
  call void @free(ptr noundef nonnull %4) #30
  br label %18

18:                                               ; preds = %_ZL6loggerPviPKc.exit, %6
  call void @llvm.lifetime.end.p0(i64 24, ptr nonnull %3) #30
  ret void
}